; Function Attrs: nounwind uwtable
define internal range(i32 -1, 1) i32 @H5C__trace_write_destroy_fd_log_msg(ptr noundef readonly captures(none) %0, ptr noundef readonly captures(none) %1, ptr noundef readonly captures(none) %2, i32 noundef %3) #0 {
  %5 = load i8, ptr @H5C_init_g, align 1, !tbaa !3, !range !7, !noundef !8
  %6 = trunc nuw i8 %5 to i1
  %7 = load i8, ptr @H5_libterm_g, align 1, !range !7
  %8 = trunc nuw i8 %7 to i1
  %9 = xor i1 %8, true
  %10 = select i1 %6, i1 true, i1 %9
  br i1 %10, label %11, label %H5C__trace_write_log_message.exit.thread, !prof !9

11:                                               ; preds = %4
  %12 = getelementptr inbounds nuw i8, ptr %0, i64 8
  %13 = load ptr, ptr %12, align 8, !tbaa !15
  %14 = getelementptr inbounds nuw i8, ptr %1, i64 8
  %15 = load i64, ptr %14, align 8, !tbaa !22
  %16 = getelementptr inbounds nuw i8, ptr %2, i64 8
  %17 = load i64, ptr %16, align 8, !tbaa !22
  %18 = tail call i32 (ptr, i64, ptr, ...) @snprintf(ptr noundef nonnull dereferenceable(1) %13, i64 noundef 4096, ptr noundef nonnull @.str.25, i64 noundef %15, i64 noundef %17, i32 noundef %3) #8
  %19 = load i8, ptr @H5C_init_g, align 1, !tbaa !3, !range !7, !noundef !8
  %20 = trunc nuw i8 %19 to i1
  %21 = load i8, ptr @H5_libterm_g, align 1, !range !7
  %22 = trunc nuw i8 %21 to i1
  %23 = xor i1 %22, true
  %24 = select i1 %20, i1 true, i1 %23
  br i1 %24, label %25, label %H5C__trace_write_log_message.exit.thread, !prof !9

25:                                               ; preds = %11
  %26 = load ptr, ptr %12, align 8, !tbaa !15
  %27 = tail call i64 @strlen(ptr noundef nonnull dereferenceable(1) %26) #9
  %28 = trunc i64 %27 to i32
  %29 = load ptr, ptr %0, align 8, !tbaa !21
  %30 = tail call i32 (ptr, ptr, ...) @fprintf(ptr noundef %29, ptr noundef nonnull @.str.3, ptr noundef nonnull %26) #8
  %.not.i = icmp eq i32 %30, %28
  br i1 %.not.i, label %31, label %33

31:                                               ; preds = %25
  %32 = load ptr, ptr %12, align 8, !tbaa !15
  tail call void @llvm.memset.p0.i64(ptr align 1 %32, i8 0, i64 %27, i1 false)
  br label %H5C__trace_write_log_message.exit.thread

33:                                               ; preds = %25
  %34 = load i64, ptr @H5E_CACHE_g, align 8, !tbaa !19
  %35 = load i64, ptr @H5E_LOGGING_g, align 8, !tbaa !19
  %36 = tail call i32 (ptr, ptr, i32, i64, i64, ptr, ...) @H5E_printf_stack(ptr noundef nonnull @.str, ptr noundef nonnull @__func__.H5C__trace_write_log_message, i32 noundef 168, i64 noundef %34, i64 noundef %35, ptr noundef nonnull @.str.12) #8
  %37 = load i64, ptr @H5E_CACHE_g, align 8, !tbaa !19
  %38 = load i64, ptr @H5E_LOGGING_g, align 8, !tbaa !19
  %39 = tail call i32 (ptr, ptr, i32, i64, i64, ptr, ...) @H5E_printf_stack(ptr noundef nonnull @.str, ptr noundef nonnull @__func__.H5C__trace_write_destroy_fd_log_msg, i32 noundef 789, i64 noundef %37, i64 noundef %38, ptr noundef nonnull @.str.11) #8
  br label %H5C__trace_write_log_message.exit.thread

H5C__trace_write_log_message.exit.thread:         ; preds = %11, %31, %33, %4
  %.0 = phi i32 [ -1, %33 ], [ 0, %4 ], [ 0, %31 ], [ 0, %11 ]
  ret i32 %.0
}